target datalayout = "e-m:e-p270:32:32-p271:32:32-p272:64:64-i64:64-i128:128-f80:128-n8:16:32:64-S128"
target triple = "x86_64-pc-linux-gnu"

@verbose = internal global i32 0, align 4
@bio_err = external global ptr, align 8
@select_name = internal global ptr null, align 8
@bio_out = external global ptr, align 8
@.str.99 = private unnamed_addr constant [26 x i8] c"ERROR: Memory allocation\0A\00", align 1
@.str.100 = private unnamed_addr constant [11 x i8] c"%sLegacy:\0A\00", align 1
@.str.101 = private unnamed_addr constant [13 x i8] c"%sProvided:\0A\00", align 1
@.str.102 = private unnamed_addr constant [3 x i8] c"  \00", align 1
@.str.103 = private unnamed_addr constant [7 x i8] c" @ %s\0A\00", align 1
@.str.104 = private unnamed_addr constant [21 x i8] c"    description: %s\0A\00", align 1
@.str.105 = private unnamed_addr constant [33 x i8] c"retrievable algorithm parameters\00", align 1
@.str.106 = private unnamed_addr constant [33 x i8] c"retrievable operation parameters\00", align 1
@.str.107 = private unnamed_addr constant [30 x i8] c"settable operation parameters\00", align 1

; Function Attrs: inlinehint nounwind uwtable
define internal void @sk_EVP_CIPHER_pop_free(ptr noundef %0, ptr noundef %1) #5 {
  %3 = alloca ptr, align 8
  %4 = alloca ptr, align 8
  store ptr %0, ptr %3, align 8, !tbaa !42
  store ptr %1, ptr %4, align 8, !tbaa !123
  %5 = load ptr, ptr %3, align 8, !tbaa !42
  %6 = load ptr, ptr %4, align 8, !tbaa !123
  call void @OPENSSL_sk_pop_free(ptr noundef %5, ptr noundef %6)
  ret void
}

; Function Attrs: inlinehint nounwind uwtable
define internal ptr @ossl_check_OPENSSL_CSTRING_sk_type(ptr noundef %0) #5 {
  %2 = alloca ptr, align 8
  store ptr %0, ptr %2, align 8, !tbaa !39
  %3 = load ptr, ptr %2, align 8, !tbaa !39
  ret ptr %3
}

; Function Attrs: inlinehint nounwind uwtable
define internal ptr @ossl_check_OPENSSL_CSTRING_compfunc_type(ptr noundef %0) #5 {
  %2 = alloca ptr, align 8
  store ptr %0, ptr %2, align 8, !tbaa !123
  %3 = load ptr, ptr %2, align 8, !tbaa !123
  ret ptr %3
}

; Function Attrs: inlinehint nounwind uwtable
define internal ptr @sk_EVP_CIPHER_value(ptr noundef %0, i32 noundef %1) #5 {
  %3 = alloca ptr, align 8
  %4 = alloca i32, align 4
  store ptr %0, ptr %3, align 8, !tbaa !42
  store i32 %1, ptr %4, align 4, !tbaa !4
  %5 = load ptr, ptr %3, align 8, !tbaa !42
  %6 = load i32, ptr %4, align 4, !tbaa !4
  %7 = call ptr @OPENSSL_sk_value(ptr noundef %5, i32 noundef %6)
  ret ptr %7
}

; Function Attrs: inlinehint nounwind uwtable
define internal i32 @sk_EVP_CIPHER_num(ptr noundef %0) #5 {
  %2 = alloca ptr, align 8
  store ptr %0, ptr %2, align 8, !tbaa !42
  %3 = load ptr, ptr %2, align 8, !tbaa !42
  %4 = call i32 @OPENSSL_sk_num(ptr noundef %3)
  ret i32 %4
}

; Function Attrs: inlinehint nounwind uwtable
define internal void @sk_EVP_CIPHER_sort(ptr noundef %0) #5 {
  %2 = alloca ptr, align 8
  store ptr %0, ptr %2, align 8, !tbaa !42
  %3 = load ptr, ptr %2, align 8, !tbaa !42
  call void @OPENSSL_sk_sort(ptr noundef %3)
  ret void
}

; Function Attrs: nounwind uwtable
define internal i32 @include_legacy() #0 {
  %1 = call ptr @app_get0_propq()
  %2 = icmp eq ptr %1, null
  %3 = zext i1 %2 to i32
  ret i32 %3
}

; Function Attrs: inlinehint nounwind uwtable
define internal ptr @sk_EVP_CIPHER_new(ptr noundef %0) #5 {
  %2 = alloca ptr, align 8
  store ptr %0, ptr %2, align 8, !tbaa !123
  %3 = load ptr, ptr %2, align 8, !tbaa !123
  %4 = call ptr @OPENSSL_sk_new(ptr noundef %3)
  ret ptr %4
}

; Function Attrs: nounwind uwtable
define internal void @list_ciphers(ptr noundef %0) #0 {
  %2 = alloca ptr, align 8
  %3 = alloca ptr, align 8
  %4 = alloca i32, align 4
  %5 = alloca i32, align 4
  %6 = alloca ptr, align 8
  %7 = alloca ptr, align 8
  %8 = alloca ptr, align 8
  store ptr %0, ptr %2, align 8, !tbaa !11
  call void @llvm.lifetime.start.p0(i64 8, ptr %3) #7
  %9 = call ptr @sk_EVP_CIPHER_new(ptr noundef @cipher_cmp)
  store ptr %9, ptr %3, align 8, !tbaa !42
  call void @llvm.lifetime.start.p0(i64 4, ptr %4) #7
  %10 = load ptr, ptr %3, align 8, !tbaa !42
  %11 = icmp eq ptr %10, null
  br i1 %11, label %12, label %15

12:                                               ; preds = %1
  %13 = load ptr, ptr @bio_err, align 8, !tbaa !13
  %14 = call i32 (ptr, ptr, ...) @BIO_printf(ptr noundef %13, ptr noundef @.str.99)
  store i32 1, ptr %5, align 4
  br label %100

15:                                               ; preds = %1
  %16 = call i32 @include_legacy()
  %17 = icmp ne i32 %16, 0
  br i1 %17, label %18, label %23

18:                                               ; preds = %15
  %19 = load ptr, ptr @bio_out, align 8, !tbaa !13
  %20 = load ptr, ptr %2, align 8, !tbaa !11
  %21 = call i32 (ptr, ptr, ...) @BIO_printf(ptr noundef %19, ptr noundef @.str.100, ptr noundef %20)
  %22 = load ptr, ptr @bio_out, align 8, !tbaa !13
  call void @EVP_CIPHER_do_all_sorted(ptr noundef @legacy_cipher_fn, ptr noundef %22)
  br label %23

23:                                               ; preds = %18, %15
  %24 = load ptr, ptr @bio_out, align 8, !tbaa !13
  %25 = load ptr, ptr %2, align 8, !tbaa !11
  %26 = call i32 (ptr, ptr, ...) @BIO_printf(ptr noundef %24, ptr noundef @.str.101, ptr noundef %25)
  %27 = call ptr @app_get0_libctx()
  %28 = load ptr, ptr %3, align 8, !tbaa !42
  call void @EVP_CIPHER_do_all_provided(ptr noundef %27, ptr noundef @collect_ciphers, ptr noundef %28)
  %29 = load ptr, ptr %3, align 8, !tbaa !42
  call void @sk_EVP_CIPHER_sort(ptr noundef %29)
  store i32 0, ptr %4, align 4, !tbaa !4
  br label %30

30:                                               ; preds = %95, %23
  %31 = load i32, ptr %4, align 4, !tbaa !4
  %32 = load ptr, ptr %3, align 8, !tbaa !42
  %33 = call i32 @sk_EVP_CIPHER_num(ptr noundef %32)
  %34 = icmp slt i32 %31, %33
  br i1 %34, label %35, label %98

35:                                               ; preds = %30
  call void @llvm.lifetime.start.p0(i64 8, ptr %6) #7
  %36 = load ptr, ptr %3, align 8, !tbaa !42
  %37 = load i32, ptr %4, align 4, !tbaa !4
  %38 = call ptr @sk_EVP_CIPHER_value(ptr noundef %36, i32 noundef %37)
  store ptr %38, ptr %6, align 8, !tbaa !44
  call void @llvm.lifetime.start.p0(i64 8, ptr %7) #7
  store ptr null, ptr %7, align 8, !tbaa !39
  %39 = load ptr, ptr @select_name, align 8, !tbaa !11
  %40 = icmp ne ptr %39, null
  br i1 %40, label %41, label %47

41:                                               ; preds = %35
  %42 = load ptr, ptr %6, align 8, !tbaa !44
  %43 = load ptr, ptr @select_name, align 8, !tbaa !11
  %44 = call i32 @EVP_CIPHER_is_a(ptr noundef %42, ptr noundef %43)
  %45 = icmp ne i32 %44, 0
  br i1 %45, label %47, label %46

46:                                               ; preds = %41
  store i32 4, ptr %5, align 4
  br label %92

47:                                               ; preds = %41, %35
  %48 = call ptr @ossl_check_OPENSSL_CSTRING_compfunc_type(ptr noundef @name_cmp)
  %49 = call ptr @OPENSSL_sk_new(ptr noundef %48)
  store ptr %49, ptr %7, align 8, !tbaa !39
  %50 = load ptr, ptr %7, align 8, !tbaa !39
  %51 = icmp ne ptr %50, null
  br i1 %51, label %52, label %89

52:                                               ; preds = %47
  %53 = load ptr, ptr %6, align 8, !tbaa !44
  %54 = load ptr, ptr %7, align 8, !tbaa !39
  %55 = call i32 @EVP_CIPHER_names_do_all(ptr noundef %53, ptr noundef @collect_names, ptr noundef %54)
  %56 = icmp ne i32 %55, 0
  br i1 %56, label %57, label %89

57:                                               ; preds = %52
  %58 = load ptr, ptr @bio_out, align 8, !tbaa !13
  %59 = call i32 (ptr, ptr, ...) @BIO_printf(ptr noundef %58, ptr noundef @.str.102)
  %60 = load ptr, ptr @bio_out, align 8, !tbaa !13
  %61 = load ptr, ptr %7, align 8, !tbaa !39
  call void @print_names(ptr noundef %60, ptr noundef %61)
  %62 = load ptr, ptr @bio_out, align 8, !tbaa !13
  %63 = load ptr, ptr %6, align 8, !tbaa !44
  %64 = call ptr @EVP_CIPHER_get0_provider(ptr noundef %63)
  %65 = call ptr @OSSL_PROVIDER_get0_name(ptr noundef %64)
  %66 = call i32 (ptr, ptr, ...) @BIO_printf(ptr noundef %62, ptr noundef @.str.103, ptr noundef %65)
  %67 = load i32, ptr @verbose, align 4, !tbaa !4
  %68 = icmp ne i32 %67, 0
  br i1 %68, label %69, label %88

69:                                               ; preds = %57
  call void @llvm.lifetime.start.p0(i64 8, ptr %8) #7
  %70 = load ptr, ptr %6, align 8, !tbaa !44
  %71 = call ptr @EVP_CIPHER_get0_description(ptr noundef %70)
  store ptr %71, ptr %8, align 8, !tbaa !11
  %72 = load ptr, ptr %8, align 8, !tbaa !11
  %73 = icmp ne ptr %72, null
  br i1 %73, label %74, label %78

74:                                               ; preds = %69
  %75 = load ptr, ptr @bio_out, align 8, !tbaa !13
  %76 = load ptr, ptr %8, align 8, !tbaa !11
  %77 = call i32 (ptr, ptr, ...) @BIO_printf(ptr noundef %75, ptr noundef @.str.104, ptr noundef %76)
  br label %78

78:                                               ; preds = %74, %69
  %79 = load ptr, ptr %6, align 8, !tbaa !44
  %80 = call ptr @EVP_CIPHER_gettable_params(ptr noundef %79)
  %81 = call i32 @print_param_types(ptr noundef @.str.105, ptr noundef %80, i32 noundef 4)
  %82 = load ptr, ptr %6, align 8, !tbaa !44
  %83 = call ptr @EVP_CIPHER_gettable_ctx_params(ptr noundef %82)
  %84 = call i32 @print_param_types(ptr noundef @.str.106, ptr noundef %83, i32 noundef 4)
  %85 = load ptr, ptr %6, align 8, !tbaa !44
  %86 = call ptr @EVP_CIPHER_settable_ctx_params(ptr noundef %85)
  %87 = call i32 @print_param_types(ptr noundef @.str.107, ptr noundef %86, i32 noundef 4)
  call void @llvm.lifetime.end.p0(i64 8, ptr %8) #7
  br label %88

88:                                               ; preds = %78, %57
  br label %89

89:                                               ; preds = %88, %52, %47
  %90 = load ptr, ptr %7, align 8, !tbaa !39
  %91 = call ptr @ossl_check_OPENSSL_CSTRING_sk_type(ptr noundef %90)
  call void @OPENSSL_sk_free(ptr noundef %91)
  store i32 0, ptr %5, align 4
  br label %92

92:                                               ; preds = %89, %46
  call void @llvm.lifetime.end.p0(i64 8, ptr %7) #7
  call void @llvm.lifetime.end.p0(i64 8, ptr %6) #7
  %93 = load i32, ptr %5, align 4
  switch i32 %93, label %103 [
    i32 0, label %94
    i32 4, label %95
  ]

94:                                               ; preds = %92
  br label %95

95:                                               ; preds = %94, %92
  %96 = load i32, ptr %4, align 4, !tbaa !4
  %97 = add nsw i32 %96, 1
  store i32 %97, ptr %4, align 4, !tbaa !4
  br label %30, !llvm.loop !46

98:                                               ; preds = %30
  %99 = load ptr, ptr %3, align 8, !tbaa !42
  call void @sk_EVP_CIPHER_pop_free(ptr noundef %99, ptr noundef @EVP_CIPHER_free)
  store i32 0, ptr %5, align 4
  br label %100

100:                                              ; preds = %98, %12
  call void @llvm.lifetime.end.p0(i64 4, ptr %4) #7
  call void @llvm.lifetime.end.p0(i64 8, ptr %3) #7
  %101 = load i32, ptr %5, align 4
  switch i32 %101, label %103 [
    i32 0, label %102
    i32 1, label %102
  ]

102:                                              ; preds = %100, %100
  ret void

103:                                              ; preds = %100, %92
  unreachable
}