; Function Attrs: nounwind uwtable
define internal fastcc void @list_ciphers(ptr noundef %0) unnamed_addr #0 {
  %2 = tail call ptr @OPENSSL_sk_new(ptr noundef nonnull @cipher_cmp) #6
  %3 = icmp eq ptr %2, null
  br i1 %3, label %4, label %7

4:                                                ; preds = %1
  %5 = load ptr, ptr @bio_err, align 8, !tbaa !4
  %6 = tail call i32 (ptr, ptr, ...) @BIO_printf(ptr noundef %5, ptr noundef nonnull @.str.99) #6
  br label %52

7:                                                ; preds = %1
  %8 = tail call ptr @app_get0_propq() #6
  %.not = icmp eq ptr %8, null
  br i1 %.not, label %9, label %13

9:                                                ; preds = %7
  %10 = load ptr, ptr @bio_out, align 8, !tbaa !4
  %11 = tail call i32 (ptr, ptr, ...) @BIO_printf(ptr noundef %10, ptr noundef nonnull @.str.100, ptr noundef %0) #6
  %12 = load ptr, ptr @bio_out, align 8, !tbaa !4
  tail call void @EVP_CIPHER_do_all_sorted(ptr noundef nonnull @legacy_cipher_fn, ptr noundef %12) #6
  br label %13

13:                                               ; preds = %9, %7
  %14 = load ptr, ptr @bio_out, align 8, !tbaa !4
  %15 = tail call i32 (ptr, ptr, ...) @BIO_printf(ptr noundef %14, ptr noundef nonnull @.str.101, ptr noundef %0) #6
  %16 = tail call ptr @app_get0_libctx() #6
  tail call void @EVP_CIPHER_do_all_provided(ptr noundef %16, ptr noundef nonnull @collect_ciphers, ptr noundef nonnull %2) #6
  tail call void @OPENSSL_sk_sort(ptr noundef nonnull %2) #6
  %17 = tail call i32 @OPENSSL_sk_num(ptr noundef nonnull %2) #6
  %18 = icmp sgt i32 %17, 0
  br i1 %18, label %.lr.ph, label %._crit_edge

.lr.ph:                                           ; preds = %13, %48
  %.032 = phi i32 [ %49, %48 ], [ 0, %13 ]
  %19 = tail call ptr @OPENSSL_sk_value(ptr noundef nonnull %2, i32 noundef %.032) #6
  %20 = load ptr, ptr @select_name, align 8, !tbaa !23
  %.not27 = icmp eq ptr %20, null
  br i1 %.not27, label %23, label %21

21:                                               ; preds = %.lr.ph
  %22 = tail call i32 @EVP_CIPHER_is_a(ptr noundef %19, ptr noundef nonnull %20) #6
  %.not28 = icmp eq i32 %22, 0
  br i1 %.not28, label %48, label %23

23:                                               ; preds = %21, %.lr.ph
  %24 = tail call ptr @OPENSSL_sk_new(ptr noundef nonnull @name_cmp) #6
  %.not29 = icmp eq ptr %24, null
  br i1 %.not29, label %47, label %25

25:                                               ; preds = %23
  %26 = tail call i32 @EVP_CIPHER_names_do_all(ptr noundef %19, ptr noundef nonnull @collect_names, ptr noundef nonnull %24) #6
  %.not30 = icmp eq i32 %26, 0
  br i1 %.not30, label %47, label %27

27:                                               ; preds = %25
  %28 = load ptr, ptr @bio_out, align 8, !tbaa !4
  %29 = tail call i32 (ptr, ptr, ...) @BIO_printf(ptr noundef %28, ptr noundef nonnull @.str.102) #6
  %30 = load ptr, ptr @bio_out, align 8, !tbaa !4
  tail call void @print_names(ptr noundef %30, ptr noundef nonnull %24) #6
  %31 = load ptr, ptr @bio_out, align 8, !tbaa !4
  %32 = tail call ptr @EVP_CIPHER_get0_provider(ptr noundef %19) #6
  %33 = tail call ptr @OSSL_PROVIDER_get0_name(ptr noundef %32) #6
  %34 = tail call i32 (ptr, ptr, ...) @BIO_printf(ptr noundef %31, ptr noundef nonnull @.str.103, ptr noundef %33) #6
  %.b = load i1, ptr @verbose, align 4
  br i1 %.b, label %35, label %47

35:                                               ; preds = %27
  %36 = tail call ptr @EVP_CIPHER_get0_description(ptr noundef %19) #6
  %.not31 = icmp eq ptr %36, null
  br i1 %.not31, label %40, label %37

37:                                               ; preds = %35
  %38 = load ptr, ptr @bio_out, align 8, !tbaa !4
  %39 = tail call i32 (ptr, ptr, ...) @BIO_printf(ptr noundef %38, ptr noundef nonnull @.str.104, ptr noundef nonnull %36) #6
  br label %40

40:                                               ; preds = %37, %35
  %41 = tail call ptr @EVP_CIPHER_gettable_params(ptr noundef %19) #6
  %42 = tail call i32 @print_param_types(ptr noundef nonnull @.str.105, ptr noundef %41, i32 noundef 4) #6
  %43 = tail call ptr @EVP_CIPHER_gettable_ctx_params(ptr noundef %19) #6
  %44 = tail call i32 @print_param_types(ptr noundef nonnull @.str.106, ptr noundef %43, i32 noundef 4) #6
  %45 = tail call ptr @EVP_CIPHER_settable_ctx_params(ptr noundef %19) #6
  %46 = tail call i32 @print_param_types(ptr noundef nonnull @.str.107, ptr noundef %45, i32 noundef 4) #6
  br label %47

47:                                               ; preds = %27, %40, %25, %23
  tail call void @OPENSSL_sk_free(ptr noundef %24) #6
  br label %48

48:                                               ; preds = %21, %47
  %49 = add nuw nsw i32 %.032, 1
  %50 = tail call i32 @OPENSSL_sk_num(ptr noundef nonnull %2) #6
  %51 = icmp slt i32 %49, %50
  br i1 %51, label %.lr.ph, label %._crit_edge, !llvm.loop !43

._crit_edge:                                      ; preds = %48, %13
  tail call void @OPENSSL_sk_pop_free(ptr noundef nonnull %2, ptr noundef nonnull @EVP_CIPHER_free) #6
  br label %52

52:                                               ; preds = %._crit_edge, %4
  ret void
}